target datalayout = "e-m:e-p270:32:32-p271:32:32-p272:64:64-i64:64-i128:128-f80:128-n8:16:32:64-S128"
target triple = "x86_64-pc-linux-gnu"

%struct._lv_textarea_t = type { %struct._lv_obj_t, ptr, ptr, ptr, ptr, ptr, i32, i32, %struct.anon, i32, i32, i8 }
%struct._lv_obj_t = type { ptr, ptr, ptr, ptr, ptr, %struct.lv_area_t, i32, i16, i16 }
%struct.lv_area_t = type { i32, i32, i32, i32 }
%struct.anon = type { i32, i32, %struct.lv_area_t, i32, i8 }

; Function Attrs: nounwind uwtable
define void @lv_textarea_set_password_show_time(ptr noundef %0, i32 noundef %1) #0 {
  %3 = alloca ptr, align 8
  %4 = alloca i32, align 4
  %5 = alloca ptr, align 8
  store ptr %0, ptr %3, align 8, !tbaa !8
  store i32 %1, ptr %4, align 4, !tbaa !32
  br label %6

6:                                                ; preds = %2
  %7 = load ptr, ptr %3, align 8, !tbaa !8
  %8 = icmp ne ptr %7, null
  br i1 %8, label %13, label %9

9:                                                ; preds = %6
  br label %10

10:                                               ; preds = %9
  br label %11

11:                                               ; preds = %10
  br label %12

12:                                               ; preds = %11, %12
  br label %12

13:                                               ; preds = %6
  br label %14

14:                                               ; preds = %13
  call void @llvm.lifetime.start.p0(i64 8, ptr %5) #6
  %15 = load ptr, ptr %3, align 8, !tbaa !8
  store ptr %15, ptr %5, align 8, !tbaa !10
  %16 = load i32, ptr %4, align 4, !tbaa !32
  %17 = load ptr, ptr %5, align 8, !tbaa !10
  %18 = getelementptr inbounds nuw %struct._lv_textarea_t, ptr %17, i32 0, i32 7
  store i32 %16, ptr %18, align 4, !tbaa !23
  %19 = load ptr, ptr %3, align 8, !tbaa !8
  call void @pwd_char_hider(ptr noundef %19)
  call void @llvm.lifetime.end.p0(i64 8, ptr %5) #6
  ret void
}