; Function Attrs: nounwind uwtable
define void @lv_textarea_set_password_show_time(ptr noundef %0, i32 noundef %1) local_unnamed_addr #0 {
  %.not = icmp eq ptr %0, null
  br i1 %.not, label %.preheader, label %3

.preheader:                                       ; preds = %2, %.preheader
  br label %.preheader

3:                                                ; preds = %2
  %4 = getelementptr inbounds nuw i8, ptr %0, i64 108
  store i32 %1, ptr %4, align 4, !tbaa !3
  tail call fastcc void @pwd_char_hider(ptr noundef nonnull %0)
  ret void
}